ccopy_reg
_reconstructor
p0
(csklearn.linear_model.base
LinearRegression
p1
c__builtin__
object
p2
Ntp3
Rp4
(dp5
S'normalize'
p6
I00
sS'n_jobs'
p7
I-1
sS'rank_'
p8
I4
sS'fit_intercept'
p9
I01
sS'_residues'
p10
cnumpy.core.multiarray
scalar
p11
(cnumpy
dtype
p12
(S'f8'
p13
I0
I1
tp14
Rp15
(I3
S'<'
p16
NNNI-1
I-1
I0
tp17
bS'p\xb2\xed\xd5a\x0eFA'
p18
tp19
Rp20
sS'singular_'
p21
cnumpy.core.multiarray
_reconstruct
p22
(cnumpy
ndarray
p23
(I0
tp24
S'b'
p25
tp26
Rp27
(I1
(I4
tp28
g15
I00
S'%\xed:\x9aCNQ@\xfb\x95G\xd9\xa6{I@\x1d\x91\x93\x8e\xe2 D@4\xa8\x9a\x8aQ;<@'
p29
tp30
bsS'coef_'
p31
g22
(g23
(I0
tp32
g25
tp33
Rp34
(I1
(I4
tp35
g15
I00
S'*Y\x91\xae\xb5\xf0h@@\xe2\xd4l\xe2\x8d\xee\xbf\x00\xa9\xbd\x84\x89\xf8\xc1?p\xad\xd7\x00\xb0\x96\t\xc0'
p36
tp37
bsS'_sklearn_version'
p38
S'0.18'
p39
sS'copy_X'
p40
I01
sS'intercept_'
p41
g11
(g15
S's\xc3\xbf\xe6T\tw@'
p42
tp43
Rp44
sb.